; Function Attrs: mustprogress nofree norecurse nosync nounwind willreturn memory(read, inaccessiblemem: none) uwtable
define internal range(i32 -1, 2) i32 @cmp_pkt_sub_pos_ts(ptr noundef readonly captures(none) %0, ptr noundef readonly captures(none) %1) #5 {
  %3 = load ptr, ptr %0, align 8, !tbaa !28
  %4 = load ptr, ptr %1, align 8, !tbaa !28
  %5 = getelementptr inbounds nuw i8, ptr %3, i64 72
  %6 = load i64, ptr %5, align 8, !tbaa !48
  %7 = getelementptr inbounds nuw i8, ptr %4, i64 72
  %8 = load i64, ptr %7, align 8, !tbaa !48
  %9 = icmp eq i64 %6, %8
  br i1 %9, label %10, label %19

10:                                               ; preds = %2
  %11 = getelementptr inbounds nuw i8, ptr %3, i64 8
  %12 = load i64, ptr %11, align 8, !tbaa !43
  %13 = getelementptr inbounds nuw i8, ptr %4, i64 8
  %14 = load i64, ptr %13, align 8, !tbaa !43
  %15 = icmp eq i64 %12, %14
  br i1 %15, label %22, label %16

16:                                               ; preds = %10
  %17 = icmp sgt i64 %12, %14
  %18 = select i1 %17, i32 1, i32 -1
  br label %22

19:                                               ; preds = %2
  %20 = icmp sgt i64 %6, %8
  %21 = select i1 %20, i32 1, i32 -1
  br label %22

22:                                               ; preds = %10, %19, %16
  %.0 = phi i32 [ %18, %16 ], [ %21, %19 ], [ 0, %10 ]
  ret i32 %.0
}